	.file	"exploitation_01.c"
	.intel_syntax noprefix
	.text
	.section	.rodata
.LC0:
	.string	"TIME OUT"
	.text
	.globl	alarm_handler
	.type	alarm_handler, @function
alarm_handler:
.LFB6:
	.cfi_startproc
	push	rbp
	.cfi_def_cfa_offset 16
	.cfi_offset 6, -16
	mov	rbp, rsp
	.cfi_def_cfa_register 6
	lea	rax, .LC0[rip]
	mov	rdi, rax
	call	puts@PLT
	mov	edi, -1
	call	exit@PLT
	.cfi_endproc
.LFE6:
	.size	alarm_handler, .-alarm_handler
	.globl	initialize
	.type	initialize, @function
initialize:
.LFB7:
	.cfi_startproc
	push	rbp
	.cfi_def_cfa_offset 16
	.cfi_offset 6, -16
	mov	rbp, rsp
	.cfi_def_cfa_register 6
	mov	rax, QWORD PTR stdin[rip]
	mov	ecx, 0
	mov	edx, 2
	mov	esi, 0
	mov	rdi, rax
	call	setvbuf@PLT
	mov	rax, QWORD PTR stdout[rip]
	mov	ecx, 0
	mov	edx, 2
	mov	esi, 0
	mov	rdi, rax
	call	setvbuf@PLT
	lea	rax, alarm_handler[rip]
	mov	rsi, rax
	mov	edi, 14
	call	signal@PLT
	mov	edi, 30
	call	alarm@PLT
	nop
	pop	rbp
	.cfi_def_cfa 7, 8
	ret
	.cfi_endproc
.LFE7:
	.size	initialize, .-initialize
	.section	.rodata
.LC1:
	.string	"cat flag"
	.text
	.globl	read_flag
	.type	read_flag, @function
read_flag:
.LFB8:
	.cfi_startproc
	push	rbp
	.cfi_def_cfa_offset 16
	.cfi_offset 6, -16
	mov	rbp, rsp
	.cfi_def_cfa_register 6
	lea	rax, .LC1[rip]
	mov	rdi, rax
	call	system@PLT
	nop
	pop	rbp
	.cfi_def_cfa 7, 8
	ret
	.cfi_endproc
.LFE8:
	.size	read_flag, .-read_flag
	.globl	main
	.type	main, @function
main:
.LFB9:
	.cfi_startproc
	push	rbp
	.cfi_def_cfa_offset 16
	.cfi_offset 6, -16
	mov	rbp, rsp
	.cfi_def_cfa_register 6
	sub	rsp, 144
	mov	DWORD PTR -132[rbp], edi
	mov	QWORD PTR -144[rbp], rsi
	mov	eax, 0
	call	initialize
	lea	rax, -128[rbp]
	mov	rdi, rax
	call	gets@PLT
	mov	eax, 0
	leave
	.cfi_def_cfa 7, 8
	ret
	.cfi_endproc
.LFE9:
	.size	main, .-main
	.ident	"GCC: (Debian 14.2.0-16) 14.2.0"
	.section	.note.GNU-stack,"",@progbits
